target datalayout = "e-m:e-p270:32:32-p271:32:32-p272:64:64-i64:64-i128:128-f80:128-n8:16:32:64-S128"
target triple = "x86_64-pc-linux-gnu"

%class.ZPage = type { i8, i8, i8, i8, i32, i32, %class.ZVirtualMemory, i64, %class.ZLiveMap, %class.ZRememberedSet, i64, %class.ZPhysicalMemory, %class.ZListNode }
%class.ZVirtualMemory = type { i64, i64 }
%class.ZLiveMap = type { i32, i32, i64, i64, i64, %class.ZBitMap, i64 }
%class.ZBitMap = type { %class.CHeapBitMap.base, [7 x i8] }
%class.CHeapBitMap.base = type <{ %class.GrowableBitMap, i8 }>
%class.GrowableBitMap = type { %class.BitMap }
%class.BitMap = type { ptr, i64 }
%class.ZRememberedSet = type { [2 x %class.ZMovableBitMap] }
%class.ZMovableBitMap = type { %class.CHeapBitMap.base, [7 x i8] }
%class.ZPhysicalMemory = type { %class.GrowableArrayCHeap }
%class.GrowableArrayCHeap = type { %class.GrowableArrayWithAllocator }
%class.GrowableArrayWithAllocator = type { %class.GrowableArrayView }
%class.GrowableArrayView = type { %class.GrowableArrayBase, ptr }
%class.GrowableArrayBase = type { i32, i32 }
%class.ZListNode = type { ptr, ptr }

@_ZN5ZPageC1E9ZPageTypeRK14ZVirtualMemoryRK15ZPhysicalMemory = hidden unnamed_addr alias void (ptr, i8, ptr, ptr), ptr @_ZN5ZPageC2E9ZPageTypeRK14ZVirtualMemoryRK15ZPhysicalMemory

; Function Attrs: mustprogress nounwind uwtable
define hidden noundef ptr @_ZNK5ZPage29clone_limited_promote_flippedEv(ptr noundef nonnull align 8 dereferenceable(192) %0) #1 align 2 {
  %2 = alloca i64, align 8
  %3 = alloca i8, align 1
  %4 = alloca i64, align 8
  %5 = alloca ptr, align 8
  %6 = alloca ptr, align 8
  store ptr %0, ptr %5, align 8
  %7 = load ptr, ptr %5, align 8
  store i64 192, ptr %4, align 8
  %8 = load i64, ptr %4, align 8
  store i64 %8, ptr %2, align 8
  store i8 5, ptr %3, align 1
  %9 = load i64, ptr %2, align 8
  %10 = load i8, ptr %3, align 1
  %11 = call noundef ptr @_Z12AllocateHeapm8MEMFLAGSN17AllocFailStrategy13AllocFailEnumE(i64 noundef %9, i8 noundef zeroext %10, i32 noundef 0) #8
  %12 = getelementptr inbounds %class.ZPage, ptr %7, i32 0, i32 0
  %13 = load i8, ptr %12, align 8
  %14 = getelementptr inbounds %class.ZPage, ptr %7, i32 0, i32 6
  %15 = getelementptr inbounds %class.ZPage, ptr %7, i32 0, i32 11
  call void @_ZN5ZPageC1E9ZPageTypeRK14ZVirtualMemoryRK15ZPhysicalMemory(ptr noundef nonnull align 8 dereferenceable(192) %11, i8 noundef zeroext %13, ptr noundef nonnull align 8 dereferenceable(16) %14, ptr noundef nonnull align 8 dereferenceable(16) %15)
  store ptr %11, ptr %6, align 8
  %16 = getelementptr inbounds %class.ZPage, ptr %7, i32 0, i32 7
  %17 = load volatile i64, ptr %16, align 8
  %18 = load ptr, ptr %6, align 8
  %19 = getelementptr inbounds %class.ZPage, ptr %18, i32 0, i32 7
  store volatile i64 %17, ptr %19, align 8
  %20 = load ptr, ptr %6, align 8
  ret ptr %20
}