; Function Attrs: mustprogress nounwind uwtable
define hidden noundef ptr @_ZNK5ZPage29clone_limited_promote_flippedEv(ptr noundef nonnull align 8 dereferenceable(192) %0) local_unnamed_addr #0 align 2 {
  %2 = tail call noundef ptr @_Z12AllocateHeapm8MEMFLAGSN17AllocFailStrategy13AllocFailEnumE(i64 noundef 192, i8 noundef zeroext 5, i32 noundef 0) #13
  %3 = load i8, ptr %0, align 8
  %4 = getelementptr inbounds i8, ptr %0, i64 16
  store i8 %3, ptr %2, align 8
  %5 = getelementptr inbounds i8, ptr %2, i64 1
  store i8 0, ptr %5, align 1
  %6 = getelementptr inbounds i8, ptr %2, i64 2
  store i8 0, ptr %6, align 2
  %7 = getelementptr inbounds i8, ptr %2, i64 3
  store i8 -1, ptr %7, align 1
  %8 = getelementptr inbounds i8, ptr %2, i64 4
  store i32 0, ptr %8, align 4
  %9 = getelementptr inbounds i8, ptr %2, i64 8
  store i32 0, ptr %9, align 8
  %10 = getelementptr inbounds i8, ptr %2, i64 16
  tail call void @llvm.memcpy.p0.p0.i64(ptr noundef nonnull align 8 dereferenceable(16) %10, ptr noundef nonnull readonly align 8 dereferenceable(16) %4, i64 16, i1 false)
  %11 = getelementptr inbounds i8, ptr %2, i64 32
  %12 = load i64, ptr %10, align 8
  store volatile i64 %12, ptr %11, align 8
  %cond.i.i = icmp eq i8 %3, 2
  br i1 %cond.i.i, label %_ZN5ZPageC2E9ZPageTypeRK14ZVirtualMemoryRK15ZPhysicalMemory.exit, label %13

13:                                               ; preds = %1
  %14 = getelementptr inbounds i8, ptr %2, i64 24
  %15 = load i64, ptr %14, align 8
  %16 = sub i64 %15, %12
  switch i8 %3, label %19 [
    i8 0, label %17
    i8 1, label %_ZNK5ZPage22object_alignment_shiftEv.exit.i.i
  ]

17:                                               ; preds = %13
  %18 = load ptr, ptr @ZObjectAlignmentSmallShift, align 8
  br label %_ZNK5ZPage22object_alignment_shiftEv.exit.i.i

19:                                               ; preds = %13
  %20 = load ptr, ptr @g_assert_poison, align 8
  store i8 88, ptr %20, align 1
  tail call void (i32, ptr, i32, ptr, ...) @_Z12report_fatal11VMErrorTypePKciS1_z(i32 noundef -536870912, ptr noundef nonnull @.str.23, i32 noundef 95, ptr noundef nonnull @.str.24) #12
  unreachable

_ZNK5ZPage22object_alignment_shiftEv.exit.i.i:    ; preds = %17, %13
  %.0.i.in.in.i.i = phi ptr [ %18, %17 ], [ @ZObjectAlignmentMediumShift, %13 ]
  %.0.i.in.i.i = load i32, ptr %.0.i.in.in.i.i, align 4
  %.0.i1.i.i = zext nneg i32 %.0.i.in.i.i to i64
  %21 = lshr i64 %16, %.0.i1.i.i
  %22 = trunc i64 %21 to i32
  br label %_ZN5ZPageC2E9ZPageTypeRK14ZVirtualMemoryRK15ZPhysicalMemory.exit

_ZN5ZPageC2E9ZPageTypeRK14ZVirtualMemoryRK15ZPhysicalMemory.exit: ; preds = %1, %_ZNK5ZPage22object_alignment_shiftEv.exit.i.i
  %.0.i.i = phi i32 [ %22, %_ZNK5ZPage22object_alignment_shiftEv.exit.i.i ], [ 1, %1 ]
  %23 = getelementptr inbounds i8, ptr %0, i64 160
  %24 = getelementptr inbounds i8, ptr %2, i64 40
  tail call void @_ZN8ZLiveMapC1Ej(ptr noundef nonnull align 8 dereferenceable(64) %24, i32 noundef %.0.i.i) #13
  %25 = getelementptr inbounds i8, ptr %2, i64 104
  tail call void @_ZN14ZRememberedSetC1Ev(ptr noundef nonnull align 8 dereferenceable(48) %25) #13
  %26 = getelementptr inbounds i8, ptr %2, i64 152
  store i64 0, ptr %26, align 8
  %27 = getelementptr inbounds i8, ptr %2, i64 160
  tail call void @_ZN15ZPhysicalMemoryC1ERKS_(ptr noundef nonnull align 8 dereferenceable(16) %27, ptr noundef nonnull align 8 dereferenceable(16) %23) #13
  %28 = getelementptr inbounds i8, ptr %2, i64 176
  store ptr %28, ptr %28, align 8
  %29 = getelementptr inbounds i8, ptr %2, i64 184
  store ptr %28, ptr %29, align 8
  %30 = getelementptr inbounds i8, ptr %0, i64 32
  %31 = load volatile i64, ptr %30, align 8
  store volatile i64 %31, ptr %11, align 8
  ret ptr %2
}